; Function Attrs: mustprogress nounwind uwtable
define dso_local void @_ZNK4llvm14MemoryOpRemark13explainSourceB5cxx11ENS_9StringRefE(ptr dead_on_unwind noalias writable sret(%"class.std::__cxx11::basic_string") align 8 %0, ptr nocapture nonnull readnone align 8 %1, ptr %2, i64 %3) unnamed_addr #1 align 2 {
  %5 = alloca %"class.llvm::Twine", align 8
  %6 = getelementptr inbounds nuw i8, ptr %5, i64 32
  store i8 5, ptr %6, align 8, !alias.scope !41
  %7 = getelementptr inbounds nuw i8, ptr %5, i64 33
  store i8 3, ptr %7, align 1, !alias.scope !41
  store ptr %2, ptr %5, align 8, !alias.scope !41
  %8 = getelementptr inbounds nuw i8, ptr %5, i64 8
  store i64 %3, ptr %8, align 8, !alias.scope !41
  %9 = getelementptr inbounds nuw i8, ptr %5, i64 16
  store ptr @.str, ptr %9, align 8, !alias.scope !41
  call void @_ZNK4llvm5Twine3strB5cxx11Ev(ptr dead_on_unwind writable sret(%"class.std::__cxx11::basic_string") align 8 %0, ptr noundef nonnull align 8 dereferenceable(34) %5) #14
  ret void
}